
blinky.elf:	file format elf32-littleriscv

Disassembly of section .text:

00000000 <_start>:
;     asm(
       0: 37 01 01 00  	lui	sp, 16
       4: 13 01 01 0e  	addi	sp, sp, 224
       8: ef 00 80 04  	jal	0x50 <$d.9+0x50>
       c: 13 05 c0 02  	li	a0, 44
      10: 73 00 00 00  	ecall	

00000014 <sleep>:
; void sleep() {
      14: 13 01 01 ff  	addi	sp, sp, -16
;     asm("nop");
      18: 23 26 11 00  	sw	ra, 12(sp)
      1c: 23 24 81 00  	sw	s0, 8(sp)
      20: 13 04 01 01  	addi	s0, sp, 16
      24: 13 00 00 00  	nop
;     asm("nop");
      28: 13 00 00 00  	nop
;     asm("nop");
      2c: 13 00 00 00  	nop
;     iter_counter += 1;
      30: b7 05 01 00  	lui	a1, 16
      34: 03 a5 05 01  	lw	a0, 16(a1)
      38: 13 05 15 00  	addi	a0, a0, 1
      3c: 23 a8 a5 00  	sw	a0, 16(a1)
; }
      40: 83 20 c1 00  	lw	ra, 12(sp)
      44: 03 24 81 00  	lw	s0, 8(sp)
      48: 13 01 01 01  	addi	sp, sp, 16
      4c: 67 80 00 00  	ret

00000050 <main>:
; int main() {
      50: 13 01 01 fe  	addi	sp, sp, -32
      54: 23 2e 11 00  	sw	ra, 28(sp)
      58: 23 2c 81 00  	sw	s0, 24(sp)
      5c: 13 04 01 02  	addi	s0, sp, 32
      60: 13 05 00 00  	li	a0, 0
      64: 23 2a a4 fe  	sw	a0, -12(s0)
;     for (int j = 0; j < ITER_COUNT; j++) {
      68: 23 28 a4 fe  	sw	a0, -16(s0)
      6c: 6f 00 40 00  	j	0x70 <$d.9+0x70>
      70: 83 25 04 ff  	lw	a1, -16(s0)
      74: 13 05 10 00  	li	a0, 1
      78: 63 54 b5 00  	bge	a0, a1, 0x80 <$d.9+0x80>
      7c: 6f 00 80 04  	j	0xc4 <$d.9+0xc4>
      80: 6f 00 40 00  	j	0x84 <$d.9+0x84>
      84: 37 15 10 10  	lui	a0, 65793
      88: 13 05 05 01  	addi	a0, a0, 16
      8c: b7 05 01 00  	lui	a1, 16
;         *GPIO_VAL = BLINK_MODE_0;
      90: 23 26 b4 fe  	sw	a1, -20(s0)
      94: 23 a0 a5 08  	sw	a0, 128(a1)
;         sleep();
      98: ef f0 df f7  	jal	0x14 <$d.9+0x14>
      9c: 83 25 c4 fe  	lw	a1, -20(s0)
      a0: 37 05 01 01  	lui	a0, 4112
      a4: 13 05 15 10  	addi	a0, a0, 257
;         *GPIO_VAL = BLINK_MODE_1;
      a8: 23 a0 a5 08  	sw	a0, 128(a1)
;         sleep();
      ac: ef f0 9f f6  	jal	0x14 <$d.9+0x14>
;     }
      b0: 6f 00 40 00  	j	0xb4 <$d.9+0xb4>
;     for (int j = 0; j < ITER_COUNT; j++) {
      b4: 03 25 04 ff  	lw	a0, -16(s0)
      b8: 13 05 15 00  	addi	a0, a0, 1
      bc: 23 28 a4 fe  	sw	a0, -16(s0)
      c0: 6f f0 1f fb  	j	0x70 <$d.9+0x70>
;     *GPIO_VAL = iter_counter;
      c4: 37 05 01 00  	lui	a0, 16
      c8: 03 25 05 01  	lw	a0, 16(a0)
      cc: b7 05 01 00  	lui	a1, 16
      d0: 23 a0 a5 08  	sw	a0, 128(a1)
      d4: 13 05 00 00  	li	a0, 0
;     return 0;
      d8: 83 20 c1 01  	lw	ra, 28(sp)
      dc: 03 24 81 01  	lw	s0, 24(sp)
      e0: 13 01 01 02  	addi	sp, sp, 32
      e4: 67 80 00 00  	ret

Disassembly of section .rodata:

00010000 <GPIO_VAL>:
   10000: 80 00        	<unknown>
   10002: 01 00        	<unknown>

00010004 <ITER_COUNT>:
   10004: 02 00        	<unknown>
   10006: 00 00        	<unknown>

00010008 <BLINK_MODE_0>:
   10008: 10 10        	<unknown>
   1000a: 10 10        	<unknown>

0001000c <BLINK_MODE_1>:
   1000c: 01 01        	<unknown>
   1000e: 01 01        	<unknown>
