
blinky.elf:	file format elf32-littleriscv

Disassembly of section .text:

00000000 <_start>:
;     asm(
       0: 37 01 01 00  	lui	sp, 0x10
       4: 13 01 01 0e  	addi	sp, sp, 0xe0
       8: ef 00 80 04  	jal	0x50 <main>
       c: 13 05 c0 02  	li	a0, 0x2c
      10: 73 00 00 00  	ecall

00000014 <sleep>:
; void sleep() {
      14: 13 01 01 ff  	addi	sp, sp, -0x10
      18: 23 26 11 00  	sw	ra, 0xc(sp)
      1c: 23 24 81 00  	sw	s0, 0x8(sp)
      20: 13 04 01 01  	addi	s0, sp, 0x10
;     asm("nop");
      24: 13 00 00 00  	nop
;     asm("nop");
      28: 13 00 00 00  	nop
;     asm("nop");
      2c: 13 00 00 00  	nop
;     iter_counter += 1;
      30: b7 05 01 00  	lui	a1, 0x10
      34: 03 a5 05 01  	lw	a0, 0x10(a1)
      38: 13 05 15 00  	addi	a0, a0, 0x1
      3c: 23 a8 a5 00  	sw	a0, 0x10(a1)
      40: 83 20 c1 00  	lw	ra, 0xc(sp)
      44: 03 24 81 00  	lw	s0, 0x8(sp)
; }
      48: 13 01 01 01  	addi	sp, sp, 0x10
      4c: 67 80 00 00  	ret

00000050 <main>:
; int main() {
      50: 13 01 01 fe  	addi	sp, sp, -0x20
      54: 23 2e 11 00  	sw	ra, 0x1c(sp)
      58: 23 2c 81 00  	sw	s0, 0x18(sp)
      5c: 13 04 01 02  	addi	s0, sp, 0x20
      60: 13 05 00 00  	li	a0, 0x0
      64: 23 2a a4 fe  	sw	a0, -0xc(s0)
;     for (int j = 0; j < ITER_COUNT; j++) {
      68: 23 28 a4 fe  	sw	a0, -0x10(s0)
      6c: 6f 00 40 00  	j	0x70 <main+0x20>
      70: 83 25 04 ff  	lw	a1, -0x10(s0)
      74: 13 05 10 00  	li	a0, 0x1
      78: 63 54 b5 00  	bge	a0, a1, 0x80 <main+0x30>
      7c: 6f 00 00 04  	j	0xbc <main+0x6c>
      80: 6f 00 40 00  	j	0x84 <main+0x34>
      84: b7 05 02 40  	lui	a1, 0x40020
      88: 23 26 b4 fe  	sw	a1, -0x14(s0)
      8c: 13 05 c0 0c  	li	a0, 0xcc
;         *GPIO_VAL = BLINK_MODE_0;
      90: 23 a0 a5 00  	sw	a0, 0x0(a1)
;         sleep();
      94: ef f0 1f f8  	jal	0x14 <sleep>
      98: 83 25 c4 fe  	lw	a1, -0x14(s0)
      9c: 13 05 50 05  	li	a0, 0x55
;         *GPIO_VAL = BLINK_MODE_1;
      a0: 23 a0 a5 00  	sw	a0, 0x0(a1)
;         sleep();
      a4: ef f0 1f f7  	jal	0x14 <sleep>
;     }
      a8: 6f 00 40 00  	j	0xac <main+0x5c>
;     for (int j = 0; j < ITER_COUNT; j++) {
      ac: 03 25 04 ff  	lw	a0, -0x10(s0)
      b0: 13 05 15 00  	addi	a0, a0, 0x1
      b4: 23 28 a4 fe  	sw	a0, -0x10(s0)
      b8: 6f f0 9f fb  	j	0x70 <main+0x20>
;     *GPIO_VAL = iter_counter;
      bc: 37 05 01 00  	lui	a0, 0x10
      c0: 03 25 05 01  	lw	a0, 0x10(a0)
      c4: b7 05 02 40  	lui	a1, 0x40020
      c8: 23 a0 a5 00  	sw	a0, 0x0(a1)
      cc: 13 05 00 00  	li	a0, 0x0
      d0: 83 20 c1 01  	lw	ra, 0x1c(sp)
      d4: 03 24 81 01  	lw	s0, 0x18(sp)
;     return 0;
      d8: 13 01 01 02  	addi	sp, sp, 0x20
      dc: 67 80 00 00  	ret

Disassembly of section .rodata:

00010000 <GPIO_VAL>:
   10000: 00 00        	<unknown>
   10002: 02 40        	<unknown>

00010004 <ITER_COUNT>:
   10004: 02 00        	<unknown>
   10006: 00 00        	<unknown>

00010008 <BLINK_MODE_0>:
   10008: cc 00        	<unknown>
   1000a: 00 00        	<unknown>

0001000c <BLINK_MODE_1>:
   1000c: 55 00        	<unknown>
   1000e: 00 00        	<unknown>
